; Function Attrs: mustprogress uwtable
define internal fastcc noundef i32 @_ZN12_GLOBAL__N_115DffLegalizePass12get_initmaskERN5Yosys6FfDataE(ptr nocapture noundef nonnull readonly align 8 dereferenceable(856) %0) unnamed_addr #4 align 2 {
  %2 = getelementptr inbounds i8, ptr %0, i64 768
  %3 = getelementptr inbounds i8, ptr %0, i64 776
  %4 = load ptr, ptr %3, align 8
  %5 = load ptr, ptr %2, align 8
  %.not.i.i.i.not = icmp eq ptr %4, %5
  br i1 %.not.i.i.i.not, label %6, label %_ZN5Yosys5RTLIL5ConstixEi.exit

6:                                                ; preds = %1
  tail call void (ptr, ...) @_ZSt24__throw_out_of_range_fmtPKcz(ptr noundef nonnull @.str.8, i64 noundef 0, i64 noundef 0) #20
  unreachable

_ZN5Yosys5RTLIL5ConstixEi.exit:                   ; preds = %1
  %7 = load i8, ptr %5, align 1
  %8 = icmp eq i8 %7, 0
  %9 = icmp eq i8 %7, 1
  %. = select i1 %9, i32 4, i32 1
  %.0 = select i1 %8, i32 2, i32 %.
  %10 = getelementptr inbounds i8, ptr %0, i64 677
  %11 = load i8, ptr %10, align 1
  %12 = and i8 %11, 1
  %.not = icmp eq i8 %12, 0
  br i1 %.not, label %25, label %13

13:                                               ; preds = %_ZN5Yosys5RTLIL5ConstixEi.exit
  %14 = getelementptr inbounds i8, ptr %0, i64 704
  %15 = getelementptr inbounds i8, ptr %0, i64 712
  %16 = load ptr, ptr %15, align 8
  %17 = load ptr, ptr %14, align 8
  %.not.i.i.i16.not = icmp eq ptr %16, %17
  br i1 %.not.i.i.i16.not, label %18, label %_ZN5Yosys5RTLIL5ConstixEi.exit17

18:                                               ; preds = %13
  tail call void (ptr, ...) @_ZSt24__throw_out_of_range_fmtPKcz(ptr noundef nonnull @.str.8, i64 noundef 0, i64 noundef 0) #20
  unreachable

_ZN5Yosys5RTLIL5ConstixEi.exit17:                 ; preds = %13
  %19 = load i8, ptr %17, align 1
  %20 = icmp eq i8 %19, 0
  br i1 %20, label %21, label %_ZN5Yosys5RTLIL5ConstixEi.exit19

21:                                               ; preds = %_ZN5Yosys5RTLIL5ConstixEi.exit17
  %22 = shl nuw nsw i32 %.0, 4
  br label %41

_ZN5Yosys5RTLIL5ConstixEi.exit19:                 ; preds = %_ZN5Yosys5RTLIL5ConstixEi.exit17
  %23 = icmp eq i8 %19, 1
  %24 = shl nuw nsw i32 %.0, 8
  %spec.select = select i1 %23, i32 %24, i32 %.0
  br label %41

25:                                               ; preds = %_ZN5Yosys5RTLIL5ConstixEi.exit
  %26 = getelementptr inbounds i8, ptr %0, i64 676
  %27 = load i8, ptr %26, align 4
  %28 = and i8 %27, 1
  %.not12 = icmp eq i8 %28, 0
  br i1 %.not12, label %41, label %29

29:                                               ; preds = %25
  %30 = getelementptr inbounds i8, ptr %0, i64 736
  %31 = getelementptr inbounds i8, ptr %0, i64 744
  %32 = load ptr, ptr %31, align 8
  %33 = load ptr, ptr %30, align 8
  %.not.i.i.i20.not = icmp eq ptr %32, %33
  br i1 %.not.i.i.i20.not, label %34, label %_ZN5Yosys5RTLIL5ConstixEi.exit21

34:                                               ; preds = %29
  tail call void (ptr, ...) @_ZSt24__throw_out_of_range_fmtPKcz(ptr noundef nonnull @.str.8, i64 noundef 0, i64 noundef 0) #20
  unreachable

_ZN5Yosys5RTLIL5ConstixEi.exit21:                 ; preds = %29
  %35 = load i8, ptr %33, align 1
  %36 = icmp eq i8 %35, 0
  br i1 %36, label %37, label %_ZN5Yosys5RTLIL5ConstixEi.exit23

37:                                               ; preds = %_ZN5Yosys5RTLIL5ConstixEi.exit21
  %38 = shl nuw nsw i32 %.0, 4
  br label %41

_ZN5Yosys5RTLIL5ConstixEi.exit23:                 ; preds = %_ZN5Yosys5RTLIL5ConstixEi.exit21
  %39 = icmp eq i8 %35, 1
  %40 = shl nuw nsw i32 %.0, 8
  %spec.select13 = select i1 %39, i32 %40, i32 %.0
  br label %41

41:                                               ; preds = %_ZN5Yosys5RTLIL5ConstixEi.exit23, %_ZN5Yosys5RTLIL5ConstixEi.exit19, %25, %37, %21
  %.1 = phi i32 [ %22, %21 ], [ %38, %37 ], [ %.0, %25 ], [ %spec.select, %_ZN5Yosys5RTLIL5ConstixEi.exit19 ], [ %spec.select13, %_ZN5Yosys5RTLIL5ConstixEi.exit23 ]
  ret i32 %.1
}